; Function Attrs: mustprogress nounwind uwtable
define dso_local void @_ZN4node11performance26MarkGarbageCollectionStartEPN2v87IsolateENS1_6GCTypeENS1_15GCCallbackFlagsEPv(ptr nocapture readnone %isolate, i32 noundef %type, i32 %flags, ptr nocapture noundef readonly %data) #3 {
entry:
  %performance_state_.i = getelementptr inbounds i8, ptr %data, i64 2048
  %0 = load ptr, ptr %performance_state_.i, align 8
  %current_gc_type = getelementptr inbounds i8, ptr %0, i64 176
  %1 = load i16, ptr %current_gc_type, align 8
  %cmp.not = icmp eq i16 %1, 0
  br i1 %cmp.not, label %if.end, label %return

if.end:                                           ; preds = %entry
  %call1 = tail call i64 @uv_hrtime() #20
  %2 = load ptr, ptr %performance_state_.i, align 8
  %performance_last_gc_start_mark = getelementptr inbounds i8, ptr %2, i64 168
  store i64 %call1, ptr %performance_last_gc_start_mark, align 8
  %conv3 = trunc i32 %type to i16
  %3 = load ptr, ptr %performance_state_.i, align 8
  %current_gc_type5 = getelementptr inbounds i8, ptr %3, i64 176
  store i16 %conv3, ptr %current_gc_type5, align 8
  br label %return

return:                                           ; preds = %entry, %if.end
  ret void
}